target datalayout = "e-m:e-p270:32:32-p271:32:32-p272:64:64-i64:64-i128:128-f80:128-n8:16:32:64-S128"
target triple = "x86_64-pc-linux-gnu"

%"class.sat::literal" = type { i32 }
%"struct.nlsat::interval" = type { i8, %"class.sat::literal", ptr, %"class.algebraic_numbers::anum", %"class.algebraic_numbers::anum" }
%"class.algebraic_numbers::anum" = type { ptr }
%"class.std::ios_base" = type { ptr, i64, i64, i32, i32, i32, ptr, %"struct.std::ios_base::_Words", [8 x %"struct.std::ios_base::_Words"], i32, ptr, %"class.std::locale" }
%"struct.std::ios_base::_Words" = type { ptr, i64 }
%"class.std::locale" = type { ptr }

@.str = private unnamed_addr constant [7 x i8] c"(-oo, \00", align 1
@.str.3 = private unnamed_addr constant [2 x i8] c"(\00", align 1
@.str.4 = private unnamed_addr constant [2 x i8] c"[\00", align 1
@.str.5 = private unnamed_addr constant [3 x i8] c", \00", align 1
@.str.6 = private unnamed_addr constant [2 x i8] c"~\00", align 1
@.str.7 = private unnamed_addr constant [2 x i8] c"p\00", align 1
@.str.8 = private unnamed_addr constant [4 x i8] c"oo)\00", align 1
@.str.9 = private unnamed_addr constant [2 x i8] c")\00", align 1
@.str.10 = private unnamed_addr constant [2 x i8] c"]\00", align 1

; Function Attrs: inlinehint mustprogress nounwind uwtable
define linkonce_odr noundef i32 @_ZStorSt12_Ios_IostateS_(i32 noundef %0, i32 noundef %1) #9 comdat {
  %3 = alloca i32, align 4
  %4 = alloca i32, align 4
  store i32 %0, ptr %3, align 4, !tbaa !110
  store i32 %1, ptr %4, align 4, !tbaa !110
  %5 = load i32, ptr %3, align 4, !tbaa !110
  %6 = load i32, ptr %4, align 4, !tbaa !110
  %7 = or i32 %5, %6
  ret i32 %7
}

; Function Attrs: mustprogress nounwind uwtable
define available_externally noundef i32 @_ZNKSt9basic_iosIcSt11char_traitsIcEE7rdstateEv(ptr noundef nonnull align 8 dereferenceable(264) %0) #4 align 2 {
  %2 = alloca ptr, align 8
  store ptr %0, ptr %2, align 8, !tbaa !108
  %3 = load ptr, ptr %2, align 8
  %4 = getelementptr inbounds nuw %"class.std::ios_base", ptr %3, i32 0, i32 5
  %5 = load i32, ptr %4, align 8, !tbaa !112
  ret i32 %5
}

; Function Attrs: mustprogress nounwind uwtable
define linkonce_odr hidden noundef i64 @_ZNSt11char_traitsIcE6lengthEPKc(ptr noundef %0) #4 comdat align 2 {
  %2 = alloca ptr, align 8
  store ptr %0, ptr %2, align 8, !tbaa !22
  %3 = load ptr, ptr %2, align 8, !tbaa !22
  %4 = call i64 @strlen(ptr noundef %3) #3
  ret i64 %4
}

; Function Attrs: mustprogress uwtable
define available_externally void @_ZNSt9basic_iosIcSt11char_traitsIcEE8setstateESt12_Ios_Iostate(ptr noundef nonnull align 8 dereferenceable(264) %0, i32 noundef %1) #6 align 2 {
  %3 = alloca ptr, align 8
  %4 = alloca i32, align 4
  store ptr %0, ptr %3, align 8, !tbaa !108
  store i32 %1, ptr %4, align 4, !tbaa !110
  %5 = load ptr, ptr %3, align 8
  %6 = call noundef i32 @_ZNKSt9basic_iosIcSt11char_traitsIcEE7rdstateEv(ptr noundef nonnull align 8 dereferenceable(264) %5)
  %7 = load i32, ptr %4, align 4, !tbaa !110
  %8 = call noundef i32 @_ZStorSt12_Ios_IostateS_(i32 noundef %6, i32 noundef %7)
  call void @_ZNSt9basic_iosIcSt11char_traitsIcEE5clearESt12_Ios_Iostate(ptr noundef nonnull align 8 dereferenceable(264) %5, i32 noundef %8)
  ret void
}

; Function Attrs: mustprogress uwtable
define available_externally noundef nonnull align 8 dereferenceable(8) ptr @_ZNSolsEj(ptr noundef nonnull align 8 dereferenceable(8) %0, i32 noundef %1) #6 align 2 {
  %3 = alloca ptr, align 8
  %4 = alloca i32, align 4
  store ptr %0, ptr %3, align 8, !tbaa !16
  store i32 %1, ptr %4, align 4, !tbaa !8
  %5 = load ptr, ptr %3, align 8
  %6 = load i32, ptr %4, align 4, !tbaa !8
  %7 = zext i32 %6 to i64
  %8 = call noundef nonnull align 8 dereferenceable(8) ptr @_ZNSo9_M_insertImEERSoT_(ptr noundef nonnull align 8 dereferenceable(8) %5, i64 noundef %7)
  ret ptr %8
}

; Function Attrs: mustprogress nounwind uwtable
define linkonce_odr hidden noundef i32 @_ZNK3sat7literal3varEv(ptr noundef nonnull align 4 dereferenceable(4) %0) #4 comdat align 2 {
  %2 = alloca ptr, align 8
  store ptr %0, ptr %2, align 8, !tbaa !3
  %3 = load ptr, ptr %2, align 8
  %4 = getelementptr inbounds nuw %"class.sat::literal", ptr %3, i32 0, i32 0
  %5 = load i32, ptr %4, align 4, !tbaa !14
  %6 = lshr i32 %5, 1
  ret i32 %6
}

; Function Attrs: mustprogress nounwind uwtable
define linkonce_odr hidden noundef zeroext i1 @_ZNK3sat7literal4signEv(ptr noundef nonnull align 4 dereferenceable(4) %0) #4 comdat align 2 {
  %2 = alloca ptr, align 8
  store ptr %0, ptr %2, align 8, !tbaa !3
  %3 = load ptr, ptr %2, align 8
  %4 = getelementptr inbounds nuw %"class.sat::literal", ptr %3, i32 0, i32 0
  %5 = load i32, ptr %4, align 4, !tbaa !14
  %6 = zext i32 %5 to i64
  %7 = and i64 %6, 1
  %8 = icmp ne i64 %7, 0
  ret i1 %8
}

; Function Attrs: inlinehint mustprogress uwtable
define available_externally noundef nonnull align 8 dereferenceable(8) ptr @_ZStlsISt11char_traitsIcEERSt13basic_ostreamIcT_ES5_PKc(ptr noundef nonnull align 8 dereferenceable(8) %0, ptr noundef %1) #7 {
  %3 = alloca ptr, align 8
  %4 = alloca ptr, align 8
  store ptr %0, ptr %3, align 8, !tbaa !16
  store ptr %1, ptr %4, align 8, !tbaa !22
  %5 = load ptr, ptr %4, align 8, !tbaa !22
  %6 = icmp ne ptr %5, null
  br i1 %6, label %13, label %7

7:                                                ; preds = %2
  %8 = load ptr, ptr %3, align 8, !tbaa !16
  %9 = load ptr, ptr %8, align 8, !tbaa !24
  %10 = getelementptr i8, ptr %9, i64 -24
  %11 = load i64, ptr %10, align 8
  %12 = getelementptr inbounds i8, ptr %8, i64 %11
  call void @_ZNSt9basic_iosIcSt11char_traitsIcEE8setstateESt12_Ios_Iostate(ptr noundef nonnull align 8 dereferenceable(264) %12, i32 noundef 1)
  br label %19

13:                                               ; preds = %2
  %14 = load ptr, ptr %3, align 8, !tbaa !16
  %15 = load ptr, ptr %4, align 8, !tbaa !22
  %16 = load ptr, ptr %4, align 8, !tbaa !22
  %17 = call noundef i64 @_ZNSt11char_traitsIcE6lengthEPKc(ptr noundef %16)
  %18 = call noundef nonnull align 8 dereferenceable(8) ptr @_ZSt16__ostream_insertIcSt11char_traitsIcEERSt13basic_ostreamIT_T0_ES6_PKS3_l(ptr noundef nonnull align 8 dereferenceable(8) %14, ptr noundef %15, i64 noundef %17)
  br label %19

19:                                               ; preds = %13, %7
  %20 = load ptr, ptr %3, align 8, !tbaa !16
  ret ptr %20
}

; Function Attrs: mustprogress uwtable
define hidden void @_ZN5nlsat7displayERSoRN17algebraic_numbers7managerERKNS_8intervalE(ptr noundef nonnull align 8 dereferenceable(8) %0, ptr noundef nonnull align 8 dereferenceable(17) %1, ptr noundef nonnull align 8 dereferenceable(32) %2) #6 {
  %4 = alloca ptr, align 8
  %5 = alloca ptr, align 8
  %6 = alloca ptr, align 8
  store ptr %0, ptr %4, align 8, !tbaa !16
  store ptr %1, ptr %5, align 8, !tbaa !18
  store ptr %2, ptr %6, align 8, !tbaa !20
  %7 = load ptr, ptr %6, align 8, !tbaa !20
  %8 = load i8, ptr %7, align 8
  %9 = lshr i8 %8, 2
  %10 = and i8 %9, 1
  %11 = zext i8 %10 to i32
  %12 = icmp ne i32 %11, 0
  br i1 %12, label %13, label %16

13:                                               ; preds = %3
  %14 = load ptr, ptr %4, align 8, !tbaa !16
  %15 = call noundef nonnull align 8 dereferenceable(8) ptr @_ZStlsISt11char_traitsIcEERSt13basic_ostreamIcT_ES5_PKc(ptr noundef nonnull align 8 dereferenceable(8) %14, ptr noundef @.str)
  br label %36

16:                                               ; preds = %3
  %17 = load ptr, ptr %6, align 8, !tbaa !20
  %18 = load i8, ptr %17, align 8
  %19 = and i8 %18, 1
  %20 = zext i8 %19 to i32
  %21 = icmp ne i32 %20, 0
  br i1 %21, label %22, label %25

22:                                               ; preds = %16
  %23 = load ptr, ptr %4, align 8, !tbaa !16
  %24 = call noundef nonnull align 8 dereferenceable(8) ptr @_ZStlsISt11char_traitsIcEERSt13basic_ostreamIcT_ES5_PKc(ptr noundef nonnull align 8 dereferenceable(8) %23, ptr noundef @.str.3)
  br label %28

25:                                               ; preds = %16
  %26 = load ptr, ptr %4, align 8, !tbaa !16
  %27 = call noundef nonnull align 8 dereferenceable(8) ptr @_ZStlsISt11char_traitsIcEERSt13basic_ostreamIcT_ES5_PKc(ptr noundef nonnull align 8 dereferenceable(8) %26, ptr noundef @.str.4)
  br label %28

28:                                               ; preds = %25, %22
  %29 = load ptr, ptr %5, align 8, !tbaa !18
  %30 = load ptr, ptr %4, align 8, !tbaa !16
  %31 = load ptr, ptr %6, align 8, !tbaa !20
  %32 = getelementptr inbounds nuw %"struct.nlsat::interval", ptr %31, i32 0, i32 3
  %33 = call noundef nonnull align 8 dereferenceable(8) ptr @_ZNK17algebraic_numbers7manager15display_decimalERSoRKNS_4anumEj(ptr noundef nonnull align 8 dereferenceable(17) %29, ptr noundef nonnull align 8 dereferenceable(8) %30, ptr noundef nonnull align 8 dereferenceable(8) %32, i32 noundef 10)
  %34 = load ptr, ptr %4, align 8, !tbaa !16
  %35 = call noundef nonnull align 8 dereferenceable(8) ptr @_ZStlsISt11char_traitsIcEERSt13basic_ostreamIcT_ES5_PKc(ptr noundef nonnull align 8 dereferenceable(8) %34, ptr noundef @.str.5)
  br label %36

36:                                               ; preds = %28, %13
  %37 = load ptr, ptr %6, align 8, !tbaa !20
  %38 = getelementptr inbounds nuw %"struct.nlsat::interval", ptr %37, i32 0, i32 1
  %39 = call noundef zeroext i1 @_ZNK3sat7literal4signEv(ptr noundef nonnull align 4 dereferenceable(4) %38)
  br i1 %39, label %40, label %43

40:                                               ; preds = %36
  %41 = load ptr, ptr %4, align 8, !tbaa !16
  %42 = call noundef nonnull align 8 dereferenceable(8) ptr @_ZStlsISt11char_traitsIcEERSt13basic_ostreamIcT_ES5_PKc(ptr noundef nonnull align 8 dereferenceable(8) %41, ptr noundef @.str.6)
  br label %43

43:                                               ; preds = %40, %36
  %44 = load ptr, ptr %4, align 8, !tbaa !16
  %45 = call noundef nonnull align 8 dereferenceable(8) ptr @_ZStlsISt11char_traitsIcEERSt13basic_ostreamIcT_ES5_PKc(ptr noundef nonnull align 8 dereferenceable(8) %44, ptr noundef @.str.7)
  %46 = load ptr, ptr %4, align 8, !tbaa !16
  %47 = load ptr, ptr %6, align 8, !tbaa !20
  %48 = getelementptr inbounds nuw %"struct.nlsat::interval", ptr %47, i32 0, i32 1
  %49 = call noundef i32 @_ZNK3sat7literal3varEv(ptr noundef nonnull align 4 dereferenceable(4) %48)
  %50 = call noundef nonnull align 8 dereferenceable(8) ptr @_ZNSolsEj(ptr noundef nonnull align 8 dereferenceable(8) %46, i32 noundef %49)
  %51 = call noundef nonnull align 8 dereferenceable(8) ptr @_ZStlsISt11char_traitsIcEERSt13basic_ostreamIcT_ES5_PKc(ptr noundef nonnull align 8 dereferenceable(8) %50, ptr noundef @.str.5)
  %52 = load ptr, ptr %6, align 8, !tbaa !20
  %53 = load i8, ptr %52, align 8
  %54 = lshr i8 %53, 3
  %55 = and i8 %54, 1
  %56 = zext i8 %55 to i32
  %57 = icmp ne i32 %56, 0
  br i1 %57, label %58, label %61

58:                                               ; preds = %43
  %59 = load ptr, ptr %4, align 8, !tbaa !16
  %60 = call noundef nonnull align 8 dereferenceable(8) ptr @_ZStlsISt11char_traitsIcEERSt13basic_ostreamIcT_ES5_PKc(ptr noundef nonnull align 8 dereferenceable(8) %59, ptr noundef @.str.8)
  br label %80

61:                                               ; preds = %43
  %62 = load ptr, ptr %5, align 8, !tbaa !18
  %63 = load ptr, ptr %4, align 8, !tbaa !16
  %64 = load ptr, ptr %6, align 8, !tbaa !20
  %65 = getelementptr inbounds nuw %"struct.nlsat::interval", ptr %64, i32 0, i32 4
  %66 = call noundef nonnull align 8 dereferenceable(8) ptr @_ZNK17algebraic_numbers7manager15display_decimalERSoRKNS_4anumEj(ptr noundef nonnull align 8 dereferenceable(17) %62, ptr noundef nonnull align 8 dereferenceable(8) %63, ptr noundef nonnull align 8 dereferenceable(8) %65, i32 noundef 10)
  %67 = load ptr, ptr %6, align 8, !tbaa !20
  %68 = load i8, ptr %67, align 8
  %69 = lshr i8 %68, 1
  %70 = and i8 %69, 1
  %71 = zext i8 %70 to i32
  %72 = icmp ne i32 %71, 0
  br i1 %72, label %73, label %76

73:                                               ; preds = %61
  %74 = load ptr, ptr %4, align 8, !tbaa !16
  %75 = call noundef nonnull align 8 dereferenceable(8) ptr @_ZStlsISt11char_traitsIcEERSt13basic_ostreamIcT_ES5_PKc(ptr noundef nonnull align 8 dereferenceable(8) %74, ptr noundef @.str.9)
  br label %79

76:                                               ; preds = %61
  %77 = load ptr, ptr %4, align 8, !tbaa !16
  %78 = call noundef nonnull align 8 dereferenceable(8) ptr @_ZStlsISt11char_traitsIcEERSt13basic_ostreamIcT_ES5_PKc(ptr noundef nonnull align 8 dereferenceable(8) %77, ptr noundef @.str.10)
  br label %79

79:                                               ; preds = %76, %73
  br label %80

80:                                               ; preds = %79, %58
  ret void
}