; Function Attrs: mustprogress uwtable
define hidden void @_ZN5nlsat7displayERSoRN17algebraic_numbers7managerERKNS_8intervalE(ptr noundef nonnull align 8 dereferenceable(8) %0, ptr noundef nonnull align 8 dereferenceable(17) %1, ptr noundef nonnull align 8 dereferenceable(32) %2) local_unnamed_addr #4 {
  %4 = load i8, ptr %2, align 8
  %5 = and i8 %4, 4
  %.not = icmp eq i8 %5, 0
  br i1 %.not, label %8, label %6

6:                                                ; preds = %3
  %7 = tail call noundef nonnull align 8 dereferenceable(8) ptr @_ZSt16__ostream_insertIcSt11char_traitsIcEERSt13basic_ostreamIT_T0_ES6_PKS3_l(ptr noundef nonnull align 8 dereferenceable(8) %0, ptr noundef nonnull @.str, i64 noundef 6)
  br label %14

8:                                                ; preds = %3
  %9 = and i8 %4, 1
  %.not22 = icmp eq i8 %9, 0
  %.str.4..str.3 = select i1 %.not22, ptr @.str.4, ptr @.str.3
  %10 = tail call noundef nonnull align 8 dereferenceable(8) ptr @_ZSt16__ostream_insertIcSt11char_traitsIcEERSt13basic_ostreamIT_T0_ES6_PKS3_l(ptr noundef nonnull align 8 dereferenceable(8) %0, ptr noundef nonnull %.str.4..str.3, i64 noundef 1)
  %11 = getelementptr inbounds nuw i8, ptr %2, i64 16
  %12 = tail call noundef nonnull align 8 dereferenceable(8) ptr @_ZNK17algebraic_numbers7manager15display_decimalERSoRKNS_4anumEj(ptr noundef nonnull align 8 dereferenceable(17) %1, ptr noundef nonnull align 8 dereferenceable(8) %0, ptr noundef nonnull align 8 dereferenceable(8) %11, i32 noundef 10)
  %13 = tail call noundef nonnull align 8 dereferenceable(8) ptr @_ZSt16__ostream_insertIcSt11char_traitsIcEERSt13basic_ostreamIT_T0_ES6_PKS3_l(ptr noundef nonnull align 8 dereferenceable(8) %0, ptr noundef nonnull @.str.5, i64 noundef 2)
  br label %14

14:                                               ; preds = %8, %6
  %15 = getelementptr inbounds nuw i8, ptr %2, i64 4
  %16 = load i32, ptr %15, align 4, !tbaa !3
  %17 = and i32 %16, 1
  %.not25 = icmp eq i32 %17, 0
  br i1 %.not25, label %20, label %18

18:                                               ; preds = %14
  %19 = tail call noundef nonnull align 8 dereferenceable(8) ptr @_ZSt16__ostream_insertIcSt11char_traitsIcEERSt13basic_ostreamIT_T0_ES6_PKS3_l(ptr noundef nonnull align 8 dereferenceable(8) %0, ptr noundef nonnull @.str.6, i64 noundef 1)
  br label %20

20:                                               ; preds = %18, %14
  %21 = tail call noundef nonnull align 8 dereferenceable(8) ptr @_ZSt16__ostream_insertIcSt11char_traitsIcEERSt13basic_ostreamIT_T0_ES6_PKS3_l(ptr noundef nonnull align 8 dereferenceable(8) %0, ptr noundef nonnull @.str.7, i64 noundef 1)
  %22 = load i32, ptr %15, align 4, !tbaa !3
  %23 = lshr i32 %22, 1
  %24 = zext nneg i32 %23 to i64
  %25 = tail call noundef nonnull align 8 dereferenceable(8) ptr @_ZNSo9_M_insertImEERSoT_(ptr noundef nonnull align 8 dereferenceable(8) %0, i64 noundef %24)
  %26 = tail call noundef nonnull align 8 dereferenceable(8) ptr @_ZSt16__ostream_insertIcSt11char_traitsIcEERSt13basic_ostreamIT_T0_ES6_PKS3_l(ptr noundef nonnull align 8 dereferenceable(8) %25, ptr noundef nonnull @.str.5, i64 noundef 2)
  %27 = load i8, ptr %2, align 8
  %28 = and i8 %27, 8
  %.not23 = icmp eq i8 %28, 0
  br i1 %.not23, label %31, label %29

29:                                               ; preds = %20
  %30 = tail call noundef nonnull align 8 dereferenceable(8) ptr @_ZSt16__ostream_insertIcSt11char_traitsIcEERSt13basic_ostreamIT_T0_ES6_PKS3_l(ptr noundef nonnull align 8 dereferenceable(8) %0, ptr noundef nonnull @.str.8, i64 noundef 3)
  br label %40

31:                                               ; preds = %20
  %32 = getelementptr inbounds nuw i8, ptr %2, i64 24
  %33 = tail call noundef nonnull align 8 dereferenceable(8) ptr @_ZNK17algebraic_numbers7manager15display_decimalERSoRKNS_4anumEj(ptr noundef nonnull align 8 dereferenceable(17) %1, ptr noundef nonnull align 8 dereferenceable(8) %0, ptr noundef nonnull align 8 dereferenceable(8) %32, i32 noundef 10)
  %34 = load i8, ptr %2, align 8
  %35 = and i8 %34, 2
  %.not24 = icmp eq i8 %35, 0
  br i1 %.not24, label %38, label %36

36:                                               ; preds = %31
  %37 = tail call noundef nonnull align 8 dereferenceable(8) ptr @_ZSt16__ostream_insertIcSt11char_traitsIcEERSt13basic_ostreamIT_T0_ES6_PKS3_l(ptr noundef nonnull align 8 dereferenceable(8) %0, ptr noundef nonnull @.str.9, i64 noundef 1)
  br label %40

38:                                               ; preds = %31
  %39 = tail call noundef nonnull align 8 dereferenceable(8) ptr @_ZSt16__ostream_insertIcSt11char_traitsIcEERSt13basic_ostreamIT_T0_ES6_PKS3_l(ptr noundef nonnull align 8 dereferenceable(8) %0, ptr noundef nonnull @.str.10, i64 noundef 1)
  br label %40

40:                                               ; preds = %36, %38, %29
  ret void
}